; Function Attrs: nofree nounwind uwtable
define void @Ivy_CutPrintForNode(ptr noundef readonly captures(none) %0) local_unnamed_addr #7 {
  %2 = getelementptr inbounds nuw i8, ptr %0, i64 4
  %3 = load i16, ptr %2, align 4, !tbaa !40
  %4 = sext i16 %3 to i32
  %5 = tail call i32 (ptr, ...) @printf(ptr noundef nonnull dereferenceable(1) @.str.1, i32 noundef %4)
  %6 = load i16, ptr %2, align 4, !tbaa !40
  %7 = icmp sgt i16 %6, 0
  br i1 %7, label %.lr.ph, label %._crit_edge

.lr.ph:                                           ; preds = %1
  %8 = getelementptr inbounds nuw i8, ptr %0, i64 8
  br label %9

9:                                                ; preds = %.lr.ph, %9
  %indvars.iv = phi i64 [ 0, %.lr.ph ], [ %indvars.iv.next, %9 ]
  %10 = getelementptr inbounds nuw [6 x i32], ptr %8, i64 0, i64 %indvars.iv
  %11 = load i32, ptr %10, align 4, !tbaa !43
  %12 = tail call i32 (ptr, ...) @printf(ptr noundef nonnull dereferenceable(1) @.str.2, i32 noundef %11)
  %indvars.iv.next = add nuw nsw i64 %indvars.iv, 1
  %13 = load i16, ptr %2, align 4, !tbaa !40
  %14 = sext i16 %13 to i64
  %15 = icmp slt i64 %indvars.iv.next, %14
  br i1 %15, label %9, label %._crit_edge, !llvm.loop !114

._crit_edge:                                      ; preds = %9, %1
  %puts = tail call i32 @puts(ptr nonnull dereferenceable(1) @str.1)
  ret void
}